; Function Attrs: mustprogress nofree norecurse nosync nounwind willreturn memory(argmem: readwrite) uwtable
define internal range(i32 2, 4) i32 @fold_kfold_conv_knum_int_num(ptr noundef captures(none) %0) #5 {
  %2 = getelementptr inbounds nuw i8, ptr %0, i64 200
  %3 = load double, ptr %2, align 8, !tbaa !28
  %4 = fptosi double %3 to i32
  %5 = getelementptr inbounds nuw i8, ptr %0, i64 188
  %6 = load i8, ptr %5, align 4, !tbaa !28
  %.not = icmp slt i8 %6, 0
  %7 = sitofp i32 %4 to double
  %8 = fcmp une double %3, %7
  %or.cond = select i1 %.not, i1 %8, i1 false
  br i1 %or.cond, label %11, label %9

9:                                                ; preds = %1
  %10 = getelementptr inbounds nuw i8, ptr %0, i64 184
  store i32 %4, ptr %10, align 8, !tbaa !28
  br label %11

11:                                               ; preds = %1, %9
  %.0 = phi i32 [ 2, %9 ], [ 3, %1 ]
  ret i32 %.0
}